target datalayout = "e-m:e-p270:32:32-p271:32:32-p272:64:64-i64:64-i128:128-f80:128-n8:16:32:64-S128"
target triple = "x86_64-pc-linux-gnu"

; Function Attrs: nounwind uwtable
define void @Abc_ZddComb2Perm(ptr noundef %0, i32 noundef %1, ptr noundef %2, i32 noundef %3) #0 {
  %5 = alloca ptr, align 8
  %6 = alloca i32, align 4
  %7 = alloca ptr, align 8
  %8 = alloca i32, align 4
  %9 = alloca i32, align 4
  %10 = alloca i32, align 4
  store ptr %0, ptr %5, align 8, !tbaa !8
  store i32 %1, ptr %6, align 4, !tbaa !10
  store ptr %2, ptr %7, align 8, !tbaa !8
  store i32 %3, ptr %8, align 4, !tbaa !10
  call void @llvm.lifetime.start.p0(i64 4, ptr %9) #12
  store i32 0, ptr %9, align 4, !tbaa !10
  br label %11

11:                                               ; preds = %21, %4
  %12 = load i32, ptr %9, align 4, !tbaa !10
  %13 = load i32, ptr %8, align 4, !tbaa !10
  %14 = icmp slt i32 %12, %13
  br i1 %14, label %15, label %24

15:                                               ; preds = %11
  %16 = load i32, ptr %9, align 4, !tbaa !10
  %17 = load ptr, ptr %7, align 8, !tbaa !8
  %18 = load i32, ptr %9, align 4, !tbaa !10
  %19 = sext i32 %18 to i64
  %20 = getelementptr inbounds i32, ptr %17, i64 %19
  store i32 %16, ptr %20, align 4, !tbaa !10
  br label %21

21:                                               ; preds = %15
  %22 = load i32, ptr %9, align 4, !tbaa !10
  %23 = add nsw i32 %22, 1
  store i32 %23, ptr %9, align 4, !tbaa !10
  br label %11, !llvm.loop !64

24:                                               ; preds = %11
  %25 = load i32, ptr %6, align 4, !tbaa !10
  %26 = sub nsw i32 %25, 1
  store i32 %26, ptr %9, align 4, !tbaa !10
  br label %27

27:                                               ; preds = %70, %24
  %28 = load i32, ptr %9, align 4, !tbaa !10
  %29 = icmp sge i32 %28, 0
  br i1 %29, label %30, label %73

30:                                               ; preds = %27
  call void @llvm.lifetime.start.p0(i64 4, ptr %10) #12
  %31 = load ptr, ptr %7, align 8, !tbaa !8
  %32 = load ptr, ptr %5, align 8, !tbaa !8
  %33 = load i32, ptr %9, align 4, !tbaa !10
  %34 = sext i32 %33 to i64
  %35 = getelementptr inbounds i32, ptr %32, i64 %34
  %36 = load i32, ptr %35, align 4, !tbaa !10
  %37 = ashr i32 %36, 16
  %38 = sext i32 %37 to i64
  %39 = getelementptr inbounds i32, ptr %31, i64 %38
  %40 = load i32, ptr %39, align 4, !tbaa !10
  store i32 %40, ptr %10, align 4, !tbaa !10
  %41 = load ptr, ptr %7, align 8, !tbaa !8
  %42 = load ptr, ptr %5, align 8, !tbaa !8
  %43 = load i32, ptr %9, align 4, !tbaa !10
  %44 = sext i32 %43 to i64
  %45 = getelementptr inbounds i32, ptr %42, i64 %44
  %46 = load i32, ptr %45, align 4, !tbaa !10
  %47 = and i32 %46, 65535
  %48 = sext i32 %47 to i64
  %49 = getelementptr inbounds i32, ptr %41, i64 %48
  %50 = load i32, ptr %49, align 4, !tbaa !10
  %51 = load ptr, ptr %7, align 8, !tbaa !8
  %52 = load ptr, ptr %5, align 8, !tbaa !8
  %53 = load i32, ptr %9, align 4, !tbaa !10
  %54 = sext i32 %53 to i64
  %55 = getelementptr inbounds i32, ptr %52, i64 %54
  %56 = load i32, ptr %55, align 4, !tbaa !10
  %57 = ashr i32 %56, 16
  %58 = sext i32 %57 to i64
  %59 = getelementptr inbounds i32, ptr %51, i64 %58
  store i32 %50, ptr %59, align 4, !tbaa !10
  %60 = load i32, ptr %10, align 4, !tbaa !10
  %61 = load ptr, ptr %7, align 8, !tbaa !8
  %62 = load ptr, ptr %5, align 8, !tbaa !8
  %63 = load i32, ptr %9, align 4, !tbaa !10
  %64 = sext i32 %63 to i64
  %65 = getelementptr inbounds i32, ptr %62, i64 %64
  %66 = load i32, ptr %65, align 4, !tbaa !10
  %67 = and i32 %66, 65535
  %68 = sext i32 %67 to i64
  %69 = getelementptr inbounds i32, ptr %61, i64 %68
  store i32 %60, ptr %69, align 4, !tbaa !10
  call void @llvm.lifetime.end.p0(i64 4, ptr %10) #12
  br label %70

70:                                               ; preds = %30
  %71 = load i32, ptr %9, align 4, !tbaa !10
  %72 = add nsw i32 %71, -1
  store i32 %72, ptr %9, align 4, !tbaa !10
  br label %27, !llvm.loop !65

73:                                               ; preds = %27
  call void @llvm.lifetime.end.p0(i64 4, ptr %9) #12
  ret void
}