; Function Attrs: nofree norecurse nosync nounwind memory(argmem: readwrite) uwtable
define void @Abc_ZddComb2Perm(ptr noundef readonly captures(none) %0, i32 noundef %1, ptr noundef captures(none) %2, i32 noundef %3) local_unnamed_addr #11 {
  %5 = icmp sgt i32 %3, 0
  br i1 %5, label %.lr.ph.preheader, label %.preheader

.lr.ph.preheader:                                 ; preds = %4
  %wide.trip.count = zext nneg i32 %3 to i64
  br label %.lr.ph

.preheader:                                       ; preds = %.lr.ph, %4
  %6 = icmp sgt i32 %1, 0
  br i1 %6, label %.lr.ph23.preheader, label %._crit_edge

.lr.ph23.preheader:                               ; preds = %.preheader
  %7 = zext nneg i32 %1 to i64
  br label %.lr.ph23

.lr.ph:                                           ; preds = %.lr.ph.preheader, %.lr.ph
  %indvars.iv = phi i64 [ 0, %.lr.ph.preheader ], [ %indvars.iv.next, %.lr.ph ]
  %8 = getelementptr inbounds nuw i32, ptr %2, i64 %indvars.iv
  %9 = trunc nuw nsw i64 %indvars.iv to i32
  store i32 %9, ptr %8, align 4, !tbaa !3
  %indvars.iv.next = add nuw nsw i64 %indvars.iv, 1
  %exitcond.not = icmp eq i64 %indvars.iv.next, %wide.trip.count
  br i1 %exitcond.not, label %.preheader, label %.lr.ph, !llvm.loop !56

.lr.ph23:                                         ; preds = %.lr.ph23.preheader, %.lr.ph23
  %indvars.iv25 = phi i64 [ %7, %.lr.ph23.preheader ], [ %indvars.iv.next26, %.lr.ph23 ]
  %indvars.iv.next26 = add nsw i64 %indvars.iv25, -1
  %10 = getelementptr inbounds nuw i32, ptr %0, i64 %indvars.iv.next26
  %11 = load i32, ptr %10, align 4, !tbaa !3
  %12 = ashr i32 %11, 16
  %13 = sext i32 %12 to i64
  %14 = getelementptr inbounds i32, ptr %2, i64 %13
  %15 = load i32, ptr %14, align 4, !tbaa !3
  %16 = and i32 %11, 65535
  %17 = zext nneg i32 %16 to i64
  %18 = getelementptr inbounds nuw i32, ptr %2, i64 %17
  %19 = load i32, ptr %18, align 4, !tbaa !3
  store i32 %19, ptr %14, align 4, !tbaa !3
  %20 = load i32, ptr %10, align 4, !tbaa !3
  %21 = and i32 %20, 65535
  %22 = zext nneg i32 %21 to i64
  %23 = getelementptr inbounds nuw i32, ptr %2, i64 %22
  store i32 %15, ptr %23, align 4, !tbaa !3
  %24 = icmp samesign ugt i64 %indvars.iv25, 1
  br i1 %24, label %.lr.ph23, label %._crit_edge, !llvm.loop !57

._crit_edge:                                      ; preds = %.lr.ph23, %.preheader
  ret void
}